; Function Attrs: mustprogress uwtable
define internal void @_ZZN12_GLOBAL__N_122DOCTEST_ANON_CLASS_2971fEvENUlRKNSt7__cxx1112basic_stringIcSt11char_traitsIcESaIcEEEE_8__invokeES8_(ptr noundef nonnull align 8 dereferenceable(32) %0) #5 align 2 {
  %2 = load ptr, ptr getelementptr inbounds nuw (i8, ptr @_ZZN12_GLOBAL__N_122DOCTEST_ANON_CLASS_2971fEvE6outputB5cxx11, i64 8), align 8
  %3 = load ptr, ptr getelementptr inbounds nuw (i8, ptr @_ZZN12_GLOBAL__N_122DOCTEST_ANON_CLASS_2971fEvE6outputB5cxx11, i64 16), align 8
  %.not.i.i = icmp eq ptr %2, %3
  br i1 %.not.i.i, label %7, label %4

4:                                                ; preds = %1
  tail call void @_ZNSt7__cxx1112basic_stringIcSt11char_traitsIcESaIcEEC1ERKS4_(ptr noundef nonnull align 8 dereferenceable(32) %2, ptr noundef nonnull align 8 dereferenceable(32) %0)
  %5 = load ptr, ptr getelementptr inbounds nuw (i8, ptr @_ZZN12_GLOBAL__N_122DOCTEST_ANON_CLASS_2971fEvE6outputB5cxx11, i64 8), align 8
  %6 = getelementptr inbounds nuw i8, ptr %5, i64 32
  store ptr %6, ptr getelementptr inbounds nuw (i8, ptr @_ZZN12_GLOBAL__N_122DOCTEST_ANON_CLASS_2971fEvE6outputB5cxx11, i64 8), align 8
  br label %_ZZN12_GLOBAL__N_122DOCTEST_ANON_CLASS_2971fEvENKUlRKNSt7__cxx1112basic_stringIcSt11char_traitsIcESaIcEEEE_clES8_.exit

7:                                                ; preds = %1
  tail call void @_ZNSt6vectorINSt7__cxx1112basic_stringIcSt11char_traitsIcESaIcEEESaIS5_EE17_M_realloc_insertIJRKS5_EEEvN9__gnu_cxx17__normal_iteratorIPS5_S7_EEDpOT_(ptr noundef nonnull align 8 dereferenceable(24) @_ZZN12_GLOBAL__N_122DOCTEST_ANON_CLASS_2971fEvE6outputB5cxx11, ptr %2, ptr noundef nonnull align 8 dereferenceable(32) %0)
  br label %_ZZN12_GLOBAL__N_122DOCTEST_ANON_CLASS_2971fEvENKUlRKNSt7__cxx1112basic_stringIcSt11char_traitsIcESaIcEEEE_clES8_.exit

_ZZN12_GLOBAL__N_122DOCTEST_ANON_CLASS_2971fEvENKUlRKNSt7__cxx1112basic_stringIcSt11char_traitsIcESaIcEEEE_clES8_.exit: ; preds = %4, %7
  ret void
}